target datalayout = "e-m:e-p270:32:32-p271:32:32-p272:64:64-i64:64-i128:128-f80:128-n8:16:32:64-S128"
target triple = "x86_64-pc-linux-gnu"

%"struct.duckdb::LogicalType" = type { i8, i8, %"class.duckdb::shared_ptr" }
%"class.duckdb::shared_ptr" = type { %"class.std::shared_ptr" }
%"class.std::shared_ptr" = type { %"class.std::__shared_ptr" }
%"class.std::__shared_ptr" = type { ptr, %"class.std::__shared_count" }
%"class.std::__shared_count" = type { ptr }
%"class.duckdb::Value" = type { %"struct.duckdb::LogicalType", i8, %"union.duckdb::Value::Val", %"class.duckdb::shared_ptr.194" }
%"union.duckdb::Value::Val" = type { %"struct.duckdb::hugeint_t" }
%"struct.duckdb::hugeint_t" = type { i64, i64 }
%"class.duckdb::shared_ptr.194" = type { %"class.std::shared_ptr.195" }
%"class.std::shared_ptr.195" = type { %"class.std::__shared_ptr.196" }
%"class.std::__shared_ptr.196" = type { ptr, %"class.std::__shared_count" }
%"class.duckdb::DataChunk" = type { %"class.duckdb::vector.223", i64, i64, %"class.duckdb::vector.229" }
%"class.duckdb::vector.223" = type { %"class.std::vector.224" }
%"class.std::vector.224" = type { %"struct.std::_Vector_base.225" }
%"struct.std::_Vector_base.225" = type { %"struct.std::_Vector_base<duckdb::Vector, std::allocator<duckdb::Vector>>::_Vector_impl" }
%"struct.std::_Vector_base<duckdb::Vector, std::allocator<duckdb::Vector>>::_Vector_impl" = type { %"struct.std::_Vector_base<duckdb::Vector, std::allocator<duckdb::Vector>>::_Vector_impl_data" }
%"struct.std::_Vector_base<duckdb::Vector, std::allocator<duckdb::Vector>>::_Vector_impl_data" = type { ptr, ptr, ptr }
%"class.duckdb::vector.229" = type { %"class.std::vector.230" }
%"class.std::vector.230" = type { %"struct.std::_Vector_base.231" }
%"struct.std::_Vector_base.231" = type { %"struct.std::_Vector_base<duckdb::VectorCache, std::allocator<duckdb::VectorCache>>::_Vector_impl" }
%"struct.std::_Vector_base<duckdb::VectorCache, std::allocator<duckdb::VectorCache>>::_Vector_impl" = type { %"struct.std::_Vector_base<duckdb::VectorCache, std::allocator<duckdb::VectorCache>>::_Vector_impl_data" }
%"struct.std::_Vector_base<duckdb::VectorCache, std::allocator<duckdb::VectorCache>>::_Vector_impl_data" = type { ptr, ptr, ptr }
%"class.duckdb::Vector" = type { i8, %"struct.duckdb::LogicalType", ptr, %"struct.duckdb::ValidityMask", %"class.duckdb::shared_ptr.241", %"class.duckdb::shared_ptr.241" }
%"struct.duckdb::ValidityMask" = type { %"struct.duckdb::TemplatedValidityMask" }
%"struct.duckdb::TemplatedValidityMask" = type { ptr, %"class.duckdb::shared_ptr.237", i64 }
%"class.duckdb::shared_ptr.237" = type { %"class.std::shared_ptr.238" }
%"class.std::shared_ptr.238" = type { %"class.std::__shared_ptr.239" }
%"class.std::__shared_ptr.239" = type { ptr, %"class.std::__shared_count" }
%"class.duckdb::shared_ptr.241" = type { %"class.std::shared_ptr.242" }
%"class.std::shared_ptr.242" = type { %"class.std::__shared_ptr.243" }
%"class.std::__shared_ptr.243" = type { ptr, %"class.std::__shared_count" }

; Function Attrs: mustprogress uwtable
define noundef zeroext i1 @_ZN6duckdb17CanCastImplicitlyERNS_13ClientContextERKNS_11LogicalTypeES4_(ptr noundef nonnull align 8 dereferenceable(648) %0, ptr noundef nonnull align 8 dereferenceable(24) %1, ptr noundef nonnull align 8 dereferenceable(24) %2) #0 {
  %4 = alloca ptr, align 8
  %5 = alloca ptr, align 8
  %6 = alloca ptr, align 8
  store ptr %0, ptr %4, align 8, !tbaa !118
  store ptr %1, ptr %5, align 8, !tbaa !125
  store ptr %2, ptr %6, align 8, !tbaa !125
  %7 = load ptr, ptr %4, align 8, !tbaa !118
  %8 = call noundef nonnull align 8 dereferenceable(40) ptr @_ZN6duckdb15CastFunctionSet3GetERNS_13ClientContextE(ptr noundef nonnull align 8 dereferenceable(648) %7)
  %9 = load ptr, ptr %5, align 8, !tbaa !125
  %10 = load ptr, ptr %6, align 8, !tbaa !125
  %11 = call noundef i64 @_ZN6duckdb15CastFunctionSet16ImplicitCastCostERKNS_11LogicalTypeES3_(ptr noundef nonnull align 8 dereferenceable(40) %8, ptr noundef nonnull align 8 dereferenceable(24) %9, ptr noundef nonnull align 8 dereferenceable(24) %10)
  %12 = icmp sge i64 %11, 0
  ret i1 %12
}

; Function Attrs: inlinehint mustprogress nounwind uwtable
define linkonce_odr noundef nonnull align 8 dereferenceable(24) ptr @_ZNK6duckdb6Vector7GetTypeEv(ptr noundef nonnull align 8 dereferenceable(104) %0) #6 comdat align 2 {
  %2 = alloca ptr, align 8
  store ptr %0, ptr %2, align 8, !tbaa !44
  %3 = load ptr, ptr %2, align 8
  %4 = getelementptr inbounds nuw %"class.duckdb::Vector", ptr %3, i32 0, i32 1
  ret ptr %4
}

; Function Attrs: mustprogress uwtable
define internal void @_ZN6duckdbL25CanCastImplicitlyFunctionERNS_9DataChunkERNS_15ExpressionStateERNS_6VectorE(ptr noundef nonnull align 8 dereferenceable(64) %0, ptr noundef nonnull align 8 dereferenceable(176) %1, ptr noundef nonnull align 8 dereferenceable(104) %2) #0 personality ptr @__gxx_personality_v0 {
  %4 = alloca ptr, align 8
  %5 = alloca ptr, align 8
  %6 = alloca ptr, align 8
  %7 = alloca ptr, align 8
  %8 = alloca i8, align 1
  %9 = alloca %"class.duckdb::Value", align 8
  %10 = alloca ptr, align 8
  %11 = alloca i32, align 4
  store ptr %0, ptr %4, align 8, !tbaa !40
  store ptr %1, ptr %5, align 8, !tbaa !42
  store ptr %2, ptr %6, align 8, !tbaa !44
  call void @llvm.lifetime.start.p0(i64 8, ptr %7) #8
  %12 = load ptr, ptr %5, align 8, !tbaa !42
  %13 = call noundef nonnull align 8 dereferenceable(648) ptr @_ZN6duckdb15ExpressionState10GetContextEv(ptr noundef nonnull align 8 dereferenceable(176) %12)
  store ptr %13, ptr %7, align 8, !tbaa !118
  call void @llvm.lifetime.start.p0(i64 1, ptr %8) #8
  %14 = load ptr, ptr %7, align 8, !tbaa !118
  %15 = load ptr, ptr %4, align 8, !tbaa !40
  %16 = getelementptr inbounds nuw %"class.duckdb::DataChunk", ptr %15, i32 0, i32 0
  %17 = call noundef nonnull align 8 dereferenceable(104) ptr @_ZN6duckdb6vectorINS_6VectorELb1EEixEm(ptr noundef nonnull align 8 dereferenceable(24) %16, i64 noundef 0)
  %18 = call noundef nonnull align 8 dereferenceable(24) ptr @_ZNK6duckdb6Vector7GetTypeEv(ptr noundef nonnull align 8 dereferenceable(104) %17)
  %19 = load ptr, ptr %4, align 8, !tbaa !40
  %20 = getelementptr inbounds nuw %"class.duckdb::DataChunk", ptr %19, i32 0, i32 0
  %21 = call noundef nonnull align 8 dereferenceable(104) ptr @_ZN6duckdb6vectorINS_6VectorELb1EEixEm(ptr noundef nonnull align 8 dereferenceable(24) %20, i64 noundef 1)
  %22 = call noundef nonnull align 8 dereferenceable(24) ptr @_ZNK6duckdb6Vector7GetTypeEv(ptr noundef nonnull align 8 dereferenceable(104) %21)
  %23 = call noundef zeroext i1 @_ZN6duckdb17CanCastImplicitlyERNS_13ClientContextERKNS_11LogicalTypeES4_(ptr noundef nonnull align 8 dereferenceable(648) %14, ptr noundef nonnull align 8 dereferenceable(24) %18, ptr noundef nonnull align 8 dereferenceable(24) %22)
  %24 = zext i1 %23 to i8
  store i8 %24, ptr %8, align 1, !tbaa !179
  call void @llvm.lifetime.start.p0(i64 64, ptr %9) #8
  %25 = load i8, ptr %8, align 1, !tbaa !179, !range !181, !noundef !182
  %26 = trunc i8 %25 to i1
  call void @_ZN6duckdb5Value7BOOLEANEb(ptr dead_on_unwind writable sret(%"class.duckdb::Value") align 8 %9, i1 noundef zeroext %26)
  %27 = load ptr, ptr %6, align 8, !tbaa !44
  invoke void @_ZN6duckdb6Vector9ReferenceERKNS_5ValueE(ptr noundef nonnull align 8 dereferenceable(104) %27, ptr noundef nonnull align 8 dereferenceable(64) %9)
          to label %28 unwind label %29

28:                                               ; preds = %3
  call void @_ZN6duckdb5ValueD1Ev(ptr noundef nonnull align 8 dereferenceable(64) %9) #8
  call void @llvm.lifetime.end.p0(i64 64, ptr %9) #8
  call void @llvm.lifetime.end.p0(i64 1, ptr %8) #8
  call void @llvm.lifetime.end.p0(i64 8, ptr %7) #8
  ret void

29:                                               ; preds = %3
  %30 = landingpad { ptr, i32 }
          cleanup
  %31 = extractvalue { ptr, i32 } %30, 0
  store ptr %31, ptr %10, align 8
  %32 = extractvalue { ptr, i32 } %30, 1
  store i32 %32, ptr %11, align 4
  call void @_ZN6duckdb5ValueD1Ev(ptr noundef nonnull align 8 dereferenceable(64) %9) #8
  call void @llvm.lifetime.end.p0(i64 64, ptr %9) #8
  call void @llvm.lifetime.end.p0(i64 1, ptr %8) #8
  call void @llvm.lifetime.end.p0(i64 8, ptr %7) #8
  br label %33

33:                                               ; preds = %29
  %34 = load ptr, ptr %10, align 8
  %35 = load i32, ptr %11, align 4
  %36 = insertvalue { ptr, i32 } poison, ptr %34, 0
  %37 = insertvalue { ptr, i32 } %36, i32 %35, 1
  resume { ptr, i32 } %37
}