; Function Attrs: mustprogress uwtable
define internal void @_ZN6duckdbL25CanCastImplicitlyFunctionERNS_9DataChunkERNS_15ExpressionStateERNS_6VectorE(ptr noundef nonnull align 8 dereferenceable(64) %0, ptr noundef nonnull align 8 dereferenceable(176) %1, ptr noundef nonnull align 8 dereferenceable(104) %2) #0 personality ptr @__gxx_personality_v0 {
  %4 = alloca %"class.duckdb::Value", align 8
  %5 = tail call noundef nonnull align 8 dereferenceable(648) ptr @_ZN6duckdb15ExpressionState10GetContextEv(ptr noundef nonnull align 8 dereferenceable(176) %1)
  %6 = tail call noundef nonnull align 8 dereferenceable(104) ptr @_ZN6duckdb6vectorINS_6VectorELb1EEixEm(ptr noundef nonnull align 8 dereferenceable(24) %0, i64 noundef 0)
  %7 = getelementptr inbounds nuw i8, ptr %6, i64 8
  %8 = tail call noundef nonnull align 8 dereferenceable(104) ptr @_ZN6duckdb6vectorINS_6VectorELb1EEixEm(ptr noundef nonnull align 8 dereferenceable(24) %0, i64 noundef 1)
  %9 = getelementptr inbounds nuw i8, ptr %8, i64 8
  %10 = tail call noundef nonnull align 8 dereferenceable(40) ptr @_ZN6duckdb15CastFunctionSet3GetERNS_13ClientContextE(ptr noundef nonnull align 8 dereferenceable(648) %5)
  %11 = tail call noundef i64 @_ZN6duckdb15CastFunctionSet16ImplicitCastCostERKNS_11LogicalTypeES3_(ptr noundef nonnull align 8 dereferenceable(40) %10, ptr noundef nonnull align 8 dereferenceable(24) %7, ptr noundef nonnull align 8 dereferenceable(24) %9)
  %12 = icmp sgt i64 %11, -1
  call void @llvm.lifetime.start.p0(i64 64, ptr nonnull %4) #27
  call void @_ZN6duckdb5Value7BOOLEANEb(ptr dead_on_unwind nonnull writable sret(%"class.duckdb::Value") align 8 %4, i1 noundef zeroext %12)
  invoke void @_ZN6duckdb6Vector9ReferenceERKNS_5ValueE(ptr noundef nonnull align 8 dereferenceable(104) %2, ptr noundef nonnull align 8 dereferenceable(64) %4)
          to label %13 unwind label %14

13:                                               ; preds = %3
  call void @_ZN6duckdb5ValueD1Ev(ptr noundef nonnull align 8 dereferenceable(64) %4) #27
  call void @llvm.lifetime.end.p0(i64 64, ptr nonnull %4) #27
  ret void

14:                                               ; preds = %3
  %15 = landingpad { ptr, i32 }
          cleanup
  call void @_ZN6duckdb5ValueD1Ev(ptr noundef nonnull align 8 dereferenceable(64) %4) #27
  call void @llvm.lifetime.end.p0(i64 64, ptr nonnull %4) #27
  resume { ptr, i32 } %15
}